; Function Attrs: nofree norecurse nosync nounwind memory(argmem: readwrite) uwtable
define internal void @bgr30leToUV_half_c(ptr noundef writeonly captures(none) %0, ptr noundef writeonly captures(none) %1, ptr readnone captures(none) %2, ptr noundef readonly captures(none) %3, ptr readnone captures(none) %4, i32 noundef %5, ptr noundef readonly captures(none) %6, ptr readnone captures(none) %7) #1 {
  %9 = getelementptr inbounds nuw i8, ptr %6, i64 12
  %10 = load i32, ptr %9, align 4, !tbaa !42
  %11 = shl nsw i32 %10, 4
  %12 = getelementptr inbounds nuw i8, ptr %6, i64 16
  %13 = load i32, ptr %12, align 4, !tbaa !42
  %14 = getelementptr inbounds nuw i8, ptr %6, i64 20
  %15 = load i32, ptr %14, align 4, !tbaa !42
  %16 = getelementptr inbounds nuw i8, ptr %6, i64 24
  %17 = load i32, ptr %16, align 4, !tbaa !42
  %18 = shl nsw i32 %17, 4
  %19 = getelementptr inbounds nuw i8, ptr %6, i64 28
  %20 = load i32, ptr %19, align 4, !tbaa !42
  %21 = getelementptr inbounds nuw i8, ptr %6, i64 32
  %22 = load i32, ptr %21, align 4, !tbaa !42
  %invariant.gep = getelementptr i8, ptr %3, i64 4
  %23 = icmp sgt i32 %5, 0
  br i1 %23, label %.lr.ph.preheader, label %rgb16_32ToUV_half_c_template.exit

.lr.ph.preheader:                                 ; preds = %8
  %wide.trip.count = zext nneg i32 %5 to i64
  br label %.lr.ph

.lr.ph:                                           ; preds = %.lr.ph.preheader, %.lr.ph
  %indvars.iv = phi i64 [ 0, %.lr.ph.preheader ], [ %indvars.iv.next, %.lr.ph ]
  %24 = shl nsw i64 %indvars.iv, 3
  %25 = getelementptr inbounds nuw i8, ptr %3, i64 %24
  %26 = load i32, ptr %25, align 1, !tbaa !34
  %gep = getelementptr i8, ptr %invariant.gep, i64 %24
  %27 = load i32, ptr %gep, align 1, !tbaa !34
  %28 = and i32 %26, -1072694272
  %29 = and i32 %27, -1072694272
  %30 = add i32 %29, %28
  %31 = add i32 %27, %26
  %32 = sub i32 %31, %30
  %33 = lshr i32 %32, 16
  %34 = and i32 %33, 32752
  %35 = lshr exact i32 %30, 6
  %36 = and i32 %35, 32752
  %37 = and i32 %32, 2047
  %38 = mul nsw i32 %11, %37
  %39 = mul nsw i32 %36, %13
  %40 = mul nsw i32 %34, %15
  %41 = add i32 %39, 536903680
  %42 = add i32 %41, %38
  %43 = add i32 %42, %40
  %44 = lshr i32 %43, 16
  %45 = trunc nuw i32 %44 to i16
  %46 = getelementptr inbounds nuw i16, ptr %0, i64 %indvars.iv
  store i16 %45, ptr %46, align 2, !tbaa !43
  %47 = mul nsw i32 %18, %37
  %48 = mul nsw i32 %36, %20
  %49 = mul nsw i32 %34, %22
  %50 = add i32 %48, 536903680
  %51 = add i32 %50, %47
  %52 = add i32 %51, %49
  %53 = lshr i32 %52, 16
  %54 = trunc nuw i32 %53 to i16
  %55 = getelementptr inbounds nuw i16, ptr %1, i64 %indvars.iv
  store i16 %54, ptr %55, align 2, !tbaa !43
  %indvars.iv.next = add nuw nsw i64 %indvars.iv, 1
  %exitcond.not = icmp eq i64 %indvars.iv.next, %wide.trip.count
  br i1 %exitcond.not, label %rgb16_32ToUV_half_c_template.exit, label %.lr.ph, !llvm.loop !78

rgb16_32ToUV_half_c_template.exit:                ; preds = %.lr.ph, %8
  ret void
}